ccopy_reg
_reconstructor
p0
(cdedupe.datamodel
DataModel
p1
c__builtin__
dict
p2
(dp3
S'fields'
p4
(lp5
g0
(cdedupe.fieldclasses
StringType
p6
c__builtin__
object
p7
Ntp8
Rp9
(dp10
S'predicates'
p11
(lp12
g0
(cdedupe.predicates
SimplePredicate
p13
g7
Ntp14
Rp15
(dp16
S'__name__'
p17
S'(wholeFieldPredicate, manufacturer)'
p18
sS'func'
p19
cdedupe.predicates
wholeFieldPredicate
p20
sS'field'
p21
S'manufacturer'
p22
sbag0
(g13
g7
Ntp23
Rp24
(dp25
g17
S'(tokenFieldPredicate, manufacturer)'
p26
sg19
cdedupe.predicates
tokenFieldPredicate
p27
sg21
g22
sbag0
(g13
g7
Ntp28
Rp29
(dp30
g17
S'(firstTokenPredicate, manufacturer)'
p31
sg19
cdedupe.predicates
firstTokenPredicate
p32
sg21
g22
sbag0
(g13
g7
Ntp33
Rp34
(dp35
g17
S'(commonIntegerPredicate, manufacturer)'
p36
sg19
cdedupe.predicates
commonIntegerPredicate
p37
sg21
g22
sbag0
(g13
g7
Ntp38
Rp39
(dp40
g17
S'(nearIntegersPredicate, manufacturer)'
p41
sg19
cdedupe.predicates
nearIntegersPredicate
p42
sg21
g22
sbag0
(g13
g7
Ntp43
Rp44
(dp45
g17
S'(firstIntegerPredicate, manufacturer)'
p46
sg19
cdedupe.predicates
firstIntegerPredicate
p47
sg21
g22
sbag0
(g13
g7
Ntp48
Rp49
(dp50
g17
S'(sameThreeCharStartPredicate, manufacturer)'
p51
sg19
cdedupe.predicates
sameThreeCharStartPredicate
p52
sg21
g22
sbag0
(g13
g7
Ntp53
Rp54
(dp55
g17
S'(sameFiveCharStartPredicate, manufacturer)'
p56
sg19
cdedupe.predicates
sameFiveCharStartPredicate
p57
sg21
g22
sbag0
(g13
g7
Ntp58
Rp59
(dp60
g17
S'(sameSevenCharStartPredicate, manufacturer)'
p61
sg19
cdedupe.predicates
sameSevenCharStartPredicate
p62
sg21
g22
sbag0
(g13
g7
Ntp63
Rp64
(dp65
g17
S'(commonFourGram, manufacturer)'
p66
sg19
cdedupe.predicates
commonFourGram
p67
sg21
g22
sbag0
(g13
g7
Ntp68
Rp69
(dp70
g17
S'(commonSixGram, manufacturer)'
p71
sg19
cdedupe.predicates
commonSixGram
p72
sg21
g22
sbag0
(cdedupe.predicates
TfidfPredicate
p73
g7
Ntp74
Rp75
(dp76
S'threshold'
p77
F0.2
sg17
S'(0.2, manufacturer)'
p78
sg21
g22
sbag0
(g73
g7
Ntp79
Rp80
(dp81
g77
F0.4
sg17
S'(0.4, manufacturer)'
p82
sg21
g22
sbag0
(g73
g7
Ntp83
Rp84
(dp85
g77
F0.6
sg17
S'(0.6, manufacturer)'
p86
sg21
g22
sbag0
(g73
g7
Ntp87
Rp88
(dp89
g77
F0.8
sg17
S'(0.8, manufacturer)'
p90
sg21
g22
sbasg21
g22
sS'name'
p91
S'(manufacturer: String)'
p92
sS'weight'
p93
F-0.4074195325374603
sS'has_missing'
p94
I01
sbag0
(cdedupe.fieldclasses
CustomType
p95
g7
Ntp96
Rp97
(dp98
g91
S'(price: Custom, customComparator)'
p99
sS'comparator'
p100
c__main__
customComparator
p101
sg93
F1.0055351257324219
sg21
S'price'
p102
sg94
I01
sg11
(lp103
sbag0
(g6
g7
Ntp104
Rp105
(dp106
g11
(lp107
g0
(g13
g7
Ntp108
Rp109
(dp110
g17
S'(wholeFieldPredicate, title)'
p111
sg19
g20
sg21
S'title'
p112
sbag0
(g13
g7
Ntp113
Rp114
(dp115
g17
S'(tokenFieldPredicate, title)'
p116
sg19
g27
sg21
g112
sbag0
(g13
g7
Ntp117
Rp118
(dp119
g17
S'(firstTokenPredicate, title)'
p120
sg19
g32
sg21
g112
sbag0
(g13
g7
Ntp121
Rp122
(dp123
g17
S'(commonIntegerPredicate, title)'
p124
sg19
g37
sg21
g112
sbag0
(g13
g7
Ntp125
Rp126
(dp127
g17
S'(nearIntegersPredicate, title)'
p128
sg19
g42
sg21
g112
sbag0
(g13
g7
Ntp129
Rp130
(dp131
g17
S'(firstIntegerPredicate, title)'
p132
sg19
g47
sg21
g112
sbag0
(g13
g7
Ntp133
Rp134
(dp135
g17
S'(sameThreeCharStartPredicate, title)'
p136
sg19
g52
sg21
g112
sbag0
(g13
g7
Ntp137
Rp138
(dp139
g17
S'(sameFiveCharStartPredicate, title)'
p140
sg19
g57
sg21
g112
sbag0
(g13
g7
Ntp141
Rp142
(dp143
g17
S'(sameSevenCharStartPredicate, title)'
p144
sg19
g62
sg21
g112
sbag0
(g13
g7
Ntp145
Rp146
(dp147
g17
S'(commonFourGram, title)'
p148
sg19
g67
sg21
g112
sbag0
(g13
g7
Ntp149
Rp150
(dp151
g17
S'(commonSixGram, title)'
p152
sg19
g72
sg21
g112
sbag0
(g73
g7
Ntp153
Rp154
(dp155
g77
F0.2
sg17
S'(0.2, title)'
p156
sg21
g112
sbag0
(g73
g7
Ntp157
Rp158
(dp159
g77
F0.4
sg17
S'(0.4, title)'
p160
sg21
g112
sbag0
(g73
g7
Ntp161
Rp162
(dp163
g77
F0.6
sg17
S'(0.6, title)'
p164
sg21
g112
sbag0
(g73
g7
Ntp165
Rp166
(dp167
g77
F0.8
sg17
S'(0.8, title)'
p168
sg21
g112
sbasg21
g112
sg91
S'(title: String)'
p169
sg93
F-4.232428550720215
sg94
I00
sbag0
(cdedupe.fieldclasses
MissingDataType
p170
g7
Ntp171
Rp172
(dp173
g94
I00
sg91
S'((manufacturer: String): Not Missing)'
p174
sg93
F0.5997263193130493
sbag0
(g170
g7
Ntp175
Rp176
(dp177
g94
I00
sg91
S'((price: Custom, customComparator): Not Missing)'
p178
sg93
F1.0055351257324219
sbasS'bias'
p179
F1.0725151958955312
stp180
Rp181
(dp182
S'total_fields'
p183
I5
sb.(lp0
ccopy_reg
_reconstructor
p1
(cdedupe.predicates
CompoundPredicate
p2
c__builtin__
object
p3
Ntp4
Rp5
(dp6
S'predicates'
p7
(g1
(cdedupe.predicates
SimplePredicate
p8
g3
Ntp9
Rp10
(dp11
S'__name__'
p12
S'(sameSevenCharStartPredicate, title)'
p13
sS'func'
p14
cdedupe.predicates
sameSevenCharStartPredicate
p15
sS'field'
p16
S'title'
p17
sbg1
(g8
g3
Ntp18
Rp19
(dp20
g12
S'(wholeFieldPredicate, title)'
p21
sg14
cdedupe.predicates
wholeFieldPredicate
p22
sg16
g17
sbtp23
sg12
V(SimplePredicate: (sameSevenCharStartPredicate, title), SimplePredicate: (wholeFieldPredicate, title))
p24
sbag1
(g2
g3
Ntp25
Rp26
(dp27
g7
(g1
(cdedupe.predicates
TfidfPredicate
p28
g3
Ntp29
Rp30
(dp31
S'threshold'
p32
F0.4
sg12
S'(0.4, title)'
p33
sg16
g17
sbg1
(g28
g3
Ntp34
Rp35
(dp36
g32
F0.8
sg12
S'(0.8, title)'
p37
sg16
g17
sbtp38
sg12
V(TfidfPredicate: (0.4, title), TfidfPredicate: (0.8, title))
p39
sbag1
(g2
g3
Ntp40
Rp41
(dp42
g7
(g10
g1
(g28
g3
Ntp43
Rp44
(dp45
g32
F0.6
sg12
S'(0.6, title)'
p46
sg16
g17
sbtp47
sg12
V(SimplePredicate: (sameSevenCharStartPredicate, title), TfidfPredicate: (0.6, title))
p48
sbag1
(g2
g3
Ntp49
Rp50
(dp51
g7
(g10
g30
tp52
sg12
V(SimplePredicate: (sameSevenCharStartPredicate, title), TfidfPredicate: (0.4, title))
p53
sba.(dp0
S'title'
p1
c__builtin__
set
p2
((lp3
tp4
Rp5
sS'manufacturer'
p6
g2
((lp7
tp8
Rp9
s.